; Function Attrs: nounwind uwtable
define void @b2DistanceJoint_EnableMotor(i64 %0, i1 noundef zeroext %1) local_unnamed_addr #0 {
  %3 = tail call ptr @b2GetJointSimCheckType(i64 %0, i32 noundef 0) #9
  %4 = getelementptr inbounds nuw i8, ptr %3, i64 142
  %5 = load i8, ptr %4, align 2, !tbaa !17, !range !18, !noundef !19
  %6 = zext i1 %1 to i8
  %.not = icmp eq i8 %5, %6
  br i1 %.not, label %9, label %7

7:                                                ; preds = %2
  store i8 %6, ptr %4, align 2, !tbaa !17
  %8 = getelementptr inbounds nuw i8, ptr %3, i64 88
  store float 0.000000e+00, ptr %8, align 4, !tbaa !17
  br label %9

9:                                                ; preds = %7, %2
  ret void
}